target datalayout = "e-m:e-p270:32:32-p271:32:32-p272:64:64-i64:64-i128:128-f80:128-n8:16:32:64-S128"
target triple = "x86_64-pc-linux-gnu"

%struct._packet_info = type { ptr, ptr, i32, i32, %struct.nstime_t, %struct.nstime_t, %struct.nstime_t, i8, ptr, ptr, ptr, ptr, %struct._address, %struct._address, %struct._address, %struct._address, %struct._address, %struct._address, i32, ptr, i8, [3 x i8], %struct.anon, i32, i32, i32, i32, ptr, i8, ptr, ptr, i16, i16, i32, i32, i16, i32, i32, ptr, ptr, ptr, i8, i8, i16, i16, i16, i32, i16, i16, ptr, ptr, ptr, ptr, ptr, i32, i32 }
%struct.nstime_t = type { i64, i32 }
%struct._address = type { i32, i32, ptr, ptr }
%struct.anon = type { i8, [3 x i8] }

@hl7_handle = hidden global ptr null, align 8
@.str.28 = private unnamed_addr constant [5 x i8] c"MSH|\00", align 1

; Function Attrs: null_pointer_is_valid sspstrong uwtable
define internal zeroext i1 @dissect_hl7_heur(ptr noundef %0, ptr noundef %1, ptr noundef %2, ptr noundef %3) #0 {
  %5 = alloca i1, align 1
  %6 = alloca ptr, align 8
  %7 = alloca ptr, align 8
  %8 = alloca ptr, align 8
  %9 = alloca ptr, align 8
  %10 = alloca ptr, align 8
  %11 = alloca i32, align 4
  %12 = alloca i32, align 4
  store ptr %0, ptr %6, align 8
  store ptr %1, ptr %7, align 8
  store ptr %2, ptr %8, align 8
  store ptr %3, ptr %9, align 8
  call void @llvm.lifetime.start.p0(i64 8, ptr %10) #6
  store ptr null, ptr %10, align 8
  %13 = load ptr, ptr %6, align 8
  %14 = call i32 @tvb_reported_length_remaining(ptr noundef %13, i32 noundef 0)
  %15 = icmp slt i32 %14, 5
  br i1 %15, label %25, label %16

16:                                               ; preds = %4
  %17 = load ptr, ptr %6, align 8
  %18 = call zeroext i8 @tvb_get_uint8(ptr noundef %17, i32 noundef 0)
  %19 = zext i8 %18 to i32
  %20 = icmp ne i32 %19, 11
  br i1 %20, label %25, label %21

21:                                               ; preds = %16
  %22 = load ptr, ptr %6, align 8
  %23 = call i32 @tvb_strncaseeql(ptr noundef %22, i32 noundef 1, ptr noundef @.str.28, i64 noundef 4)
  %24 = icmp ne i32 %23, 0
  br i1 %24, label %25, label %26

25:                                               ; preds = %21, %16, %4
  store i1 false, ptr %5, align 1
  store i32 1, ptr %11, align 4
  br label %41

26:                                               ; preds = %21
  %27 = load ptr, ptr %7, align 8
  %28 = call ptr @find_or_create_conversation(ptr noundef %27)
  store ptr %28, ptr %10, align 8
  %29 = load ptr, ptr %10, align 8
  %30 = load ptr, ptr @hl7_handle, align 8
  call void @conversation_set_dissector(ptr noundef %29, ptr noundef %30)
  call void @llvm.lifetime.start.p0(i64 4, ptr %12) #6
  %31 = load ptr, ptr %6, align 8
  %32 = call i32 @tvb_find_uint16(ptr noundef %31, i32 noundef 0, i32 noundef -1, i16 noundef zeroext 7181)
  store i32 %32, ptr %12, align 4
  %33 = load i32, ptr %12, align 4
  %34 = icmp eq i32 %33, -1
  br i1 %34, label %35, label %40

35:                                               ; preds = %26
  %36 = load ptr, ptr %7, align 8
  %37 = getelementptr inbounds nuw %struct._packet_info, ptr %36, i32 0, i32 33
  store i32 0, ptr %37, align 4
  %38 = load ptr, ptr %7, align 8
  %39 = getelementptr inbounds nuw %struct._packet_info, ptr %38, i32 0, i32 34
  store i32 268435455, ptr %39, align 8
  br label %40

40:                                               ; preds = %35, %26
  store i1 true, ptr %5, align 1
  store i32 1, ptr %11, align 4
  call void @llvm.lifetime.end.p0(i64 4, ptr %12) #6
  br label %41

41:                                               ; preds = %40, %25
  call void @llvm.lifetime.end.p0(i64 8, ptr %10) #6
  %42 = load i1, ptr %5, align 1
  ret i1 %42
}