; Function Attrs: null_pointer_is_valid sspstrong uwtable
define internal noundef zeroext i1 @dissect_hl7_heur(ptr noundef %0, ptr noundef %1, ptr readnone captures(none) %2, ptr readnone captures(none) %3) #0 {
  %5 = tail call i32 @tvb_reported_length_remaining(ptr noundef %0, i32 noundef 0)
  %6 = icmp slt i32 %5, 5
  br i1 %6, label %19, label %7

7:                                                ; preds = %4
  %8 = tail call zeroext i8 @tvb_get_uint8(ptr noundef %0, i32 noundef 0)
  %.not = icmp eq i8 %8, 11
  br i1 %.not, label %9, label %19

9:                                                ; preds = %7
  %10 = tail call i32 @tvb_strncaseeql(ptr noundef %0, i32 noundef 1, ptr noundef nonnull @.str.28, i64 noundef 4)
  %.not9 = icmp eq i32 %10, 0
  br i1 %.not9, label %11, label %19

11:                                               ; preds = %9
  %12 = tail call ptr @find_or_create_conversation(ptr noundef %1)
  %13 = load ptr, ptr @hl7_handle, align 8
  tail call void @conversation_set_dissector(ptr noundef %12, ptr noundef %13)
  %14 = tail call i32 @tvb_find_uint16(ptr noundef %0, i32 noundef 0, i32 noundef -1, i16 noundef zeroext 7181)
  %15 = icmp eq i32 %14, -1
  br i1 %15, label %16, label %19

16:                                               ; preds = %11
  %17 = getelementptr inbounds nuw i8, ptr %1, i64 332
  store i32 0, ptr %17, align 4
  %18 = getelementptr inbounds nuw i8, ptr %1, i64 336
  store i32 268435455, ptr %18, align 8
  br label %19

19:                                               ; preds = %11, %16, %4, %7, %9
  %.0 = phi i1 [ false, %9 ], [ false, %7 ], [ false, %4 ], [ true, %16 ], [ true, %11 ]
  ret i1 %.0
}